target datalayout = "e-m:e-p270:32:32-p271:32:32-p272:64:64-i64:64-i128:128-f80:128-n8:16:32:64-S128"
target triple = "x86_64-pc-linux-gnu"

%struct.Qureg = type { i32, i32, i32, i64, i64, i32, i32, %struct.ComplexArray, %struct.ComplexArray, %struct.ComplexArray, ptr, ptr, ptr, ptr, ptr, ptr }
%struct.ComplexArray = type { ptr, ptr }
%struct.QASMLogger = type { ptr, i32, i32, i32 }
%struct.Complex = type { double, double }
%struct.ComplexMatrix2 = type { [2 x [2 x double]], [2 x [2 x double]] }

; Function Attrs: nounwind uwtable
define void @qasm_recordUnitary(ptr noundef byval(%struct.Qureg) align 8 %0, ptr noundef byval(%struct.ComplexMatrix2) align 8 %1, i32 noundef %2) #0 {
  %4 = alloca i32, align 4
  %5 = alloca %struct.Complex, align 8
  %6 = alloca %struct.Complex, align 8
  %7 = alloca double, align 8
  %8 = alloca double, align 8
  %9 = alloca double, align 8
  %10 = alloca double, align 8
  %11 = alloca [3 x double], align 16
  store i32 %2, ptr %4, align 4, !tbaa !25
  %12 = getelementptr inbounds nuw %struct.Qureg, ptr %0, i32 0, i32 15
  %13 = load ptr, ptr %12, align 8, !tbaa !10
  %14 = getelementptr inbounds nuw %struct.QASMLogger, ptr %13, i32 0, i32 3
  %15 = load i32, ptr %14, align 8, !tbaa !17
  %16 = icmp ne i32 %15, 0
  br i1 %16, label %18, label %17

17:                                               ; preds = %3
  br label %34

18:                                               ; preds = %3
  call void @llvm.lifetime.start.p0(i64 16, ptr %5) #7
  call void @llvm.lifetime.start.p0(i64 16, ptr %6) #7
  call void @llvm.lifetime.start.p0(i64 8, ptr %7) #7
  call void @getComplexPairAndPhaseFromUnitary(ptr noundef byval(%struct.ComplexMatrix2) align 8 %1, ptr noundef %5, ptr noundef %6, ptr noundef %7)
  call void @llvm.lifetime.start.p0(i64 8, ptr %8) #7
  call void @llvm.lifetime.start.p0(i64 8, ptr %9) #7
  call void @llvm.lifetime.start.p0(i64 8, ptr %10) #7
  %19 = getelementptr inbounds nuw { double, double }, ptr %5, i32 0, i32 0
  %20 = load double, ptr %19, align 8
  %21 = getelementptr inbounds nuw { double, double }, ptr %5, i32 0, i32 1
  %22 = load double, ptr %21, align 8
  %23 = getelementptr inbounds nuw { double, double }, ptr %6, i32 0, i32 0
  %24 = load double, ptr %23, align 8
  %25 = getelementptr inbounds nuw { double, double }, ptr %6, i32 0, i32 1
  %26 = load double, ptr %25, align 8
  call void @getZYZRotAnglesFromComplexPair(double %20, double %22, double %24, double %26, ptr noundef %8, ptr noundef %9, ptr noundef %10)
  call void @llvm.lifetime.start.p0(i64 24, ptr %11) #7
  %27 = load double, ptr %8, align 8, !tbaa !29
  store double %27, ptr %11, align 8, !tbaa !29
  %28 = getelementptr inbounds double, ptr %11, i64 1
  %29 = load double, ptr %9, align 8, !tbaa !29
  store double %29, ptr %28, align 8, !tbaa !29
  %30 = getelementptr inbounds double, ptr %11, i64 2
  %31 = load double, ptr %10, align 8, !tbaa !29
  store double %31, ptr %30, align 8, !tbaa !29
  %32 = load i32, ptr %4, align 4, !tbaa !25
  %33 = getelementptr inbounds [3 x double], ptr %11, i64 0, i64 0
  call void @addGateToQASM(ptr noundef byval(%struct.Qureg) align 8 %0, i32 noundef 10, ptr noundef null, i32 noundef 0, i32 noundef %32, ptr noundef %33, i32 noundef 3)
  call void @llvm.lifetime.end.p0(i64 24, ptr %11) #7
  call void @llvm.lifetime.end.p0(i64 8, ptr %10) #7
  call void @llvm.lifetime.end.p0(i64 8, ptr %9) #7
  call void @llvm.lifetime.end.p0(i64 8, ptr %8) #7
  call void @llvm.lifetime.end.p0(i64 8, ptr %7) #7
  call void @llvm.lifetime.end.p0(i64 16, ptr %6) #7
  call void @llvm.lifetime.end.p0(i64 16, ptr %5) #7
  br label %34

34:                                               ; preds = %18, %17
  ret void
}